Certificate:
    Data:
        Version: 3 (0x2)
        Serial Number: 1 (0x1)
    Signature Algorithm: sha1WithRSAEncryption
        Issuer: DC=org, DC=simple, O=Simple Inc, OU=Simple Root CA, CN=Simple Root CA
        Validity
            Not Before: May  4 07:33:35 2019 GMT
            Not After : May  3 07:33:35 2029 GMT
        Subject: DC=org, DC=simple, O=Simple Inc, OU=Simple Root CA, CN=Simple Root CA
        Subject Public Key Info:
            Public Key Algorithm: rsaEncryption
                Public-Key: (2048 bit)
                Modulus:
                    00:a0:7b:d6:7d:92:b1:8a:f7:04:eb:0b:d2:b6:aa:
                    06:96:e1:7e:69:38:1f:c7:1d:68:22:df:91:bb:02:
                    cd:0a:25:3d:69:70:f1:d8:0f:7e:33:cb:3d:50:7f:
                    ce:00:61:7b:04:b1:b3:cb:bf:4c:6d:88:bd:03:91:
                    64:c9:5f:54:2d:9e:35:af:54:82:4e:8f:4e:05:99:
                    a5:6c:d8:ee:c7:9b:6b:1e:83:19:c9:b4:4c:35:7b:
                    17:a5:58:9a:32:11:0d:59:0a:08:c1:63:88:9b:ec:
                    ec:ea:2a:81:a6:14:c7:b3:00:5f:9f:82:ad:44:59:
                    8e:e2:0f:cc:9a:5d:50:0a:5a:b3:c3:73:84:34:63:
                    5a:2c:17:90:47:5c:0a:ce:5a:74:29:50:18:51:d1:
                    da:70:b7:68:b3:68:d4:81:97:d4:21:aa:4a:07:27:
                    63:f9:da:6a:87:fd:7a:45:3e:94:bd:f4:f6:6e:b1:
                    61:bc:06:b1:f8:d5:fe:4f:c4:41:79:d0:85:85:4f:
                    71:b7:f9:e1:14:53:cc:d4:a2:21:24:75:f2:64:71:
                    dc:43:c9:58:31:33:04:1f:d2:b4:d4:f1:7b:77:8f:
                    61:6b:4c:51:09:ca:a2:1c:09:f0:31:5c:14:bf:91:
                    b8:be:c8:5d:2d:15:e0:94:56:03:84:6d:27:0b:eb:
                    14:23
                Exponent: 65537 (0x10001)
        X509v3 extensions:
            X509v3 Key Usage: critical
                Certificate Sign, CRL Sign
            X509v3 Basic Constraints: critical
                CA:TRUE
            X509v3 Subject Key Identifier: 
                8F:1F:6E:61:D6:02:4A:B8:22:DF:71:EF:22:24:B6:20:03:60:55:EE
            X509v3 Authority Key Identifier: 
                keyid:8F:1F:6E:61:D6:02:4A:B8:22:DF:71:EF:22:24:B6:20:03:60:55:EE

    Signature Algorithm: sha1WithRSAEncryption
         39:00:d7:a4:d0:51:5c:7d:b9:60:48:5d:d7:14:86:98:24:a0:
         34:84:a6:3a:90:f1:1a:9e:c6:30:30:71:ec:b9:23:95:8c:84:
         b0:45:b3:d9:8a:bc:0c:06:98:32:75:f7:10:f6:2f:cf:ce:41:
         eb:02:b6:2a:54:69:b3:51:58:9b:5b:41:01:db:15:26:1f:0b:
         ec:36:7a:52:70:75:be:65:21:0f:8f:26:14:92:15:39:d5:5a:
         fd:e6:64:32:1a:2e:f9:4c:d7:1a:f5:fb:38:5c:dd:e1:0d:6e:
         b2:05:9d:16:ce:59:a9:0a:81:b9:70:83:de:cf:52:9f:d2:b9:
         69:b3:32:ad:03:10:0b:3f:b9:ee:d2:60:3c:5e:77:28:dd:14:
         e4:c9:a3:19:00:a9:11:2f:c0:f9:ed:b4:0a:47:ca:88:c9:10:
         3e:56:d0:89:d4:78:d1:4c:ca:23:fe:81:af:cb:43:1c:4c:e4:
         e0:49:c4:b8:79:30:e5:55:6d:f6:e5:dc:38:0a:0b:36:7d:ca:
         60:43:9f:4e:ad:4a:f7:26:de:6f:4c:6a:40:b1:a0:db:97:b4:
         2c:3d:8c:5d:87:4c:48:d0:54:90:0b:1a:2b:48:a1:3a:dd:10:
         85:c8:de:5f:2d:30:7d:65:1b:df:e1:61:38:e4:7b:cc:ba:ac:
         c0:a8:f2:bf
-----BEGIN CERTIFICATE-----
MIIDxjCCAq6gAwIBAgIBATANBgkqhkiG9w0BAQUFADB0MRMwEQYKCZImiZPyLGQB
GRYDb3JnMRYwFAYKCZImiZPyLGQBGRYGc2ltcGxlMRMwEQYDVQQKDApTaW1wbGUg
SW5jMRcwFQYDVQQLDA5TaW1wbGUgUm9vdCBDQTEXMBUGA1UEAwwOU2ltcGxlIFJv
b3QgQ0EwHhcNMTkwNTA0MDczMzM1WhcNMjkwNTAzMDczMzM1WjB0MRMwEQYKCZIm
iZPyLGQBGRYDb3JnMRYwFAYKCZImiZPyLGQBGRYGc2ltcGxlMRMwEQYDVQQKDApT
aW1wbGUgSW5jMRcwFQYDVQQLDA5TaW1wbGUgUm9vdCBDQTEXMBUGA1UEAwwOU2lt
cGxlIFJvb3QgQ0EwggEiMA0GCSqGSIb3DQEBAQUAA4IBDwAwggEKAoIBAQCge9Z9
krGK9wTrC9K2qgaW4X5pOB/HHWgi35G7As0KJT1pcPHYD34zyz1Qf84AYXsEsbPL
v0xtiL0DkWTJX1QtnjWvVIJOj04FmaVs2O7Hm2segxnJtEw1exelWJoyEQ1ZCgjB
Y4ib7OzqKoGmFMezAF+fgq1EWY7iD8yaXVAKWrPDc4Q0Y1osF5BHXArOWnQpUBhR
0dpwt2izaNSBl9QhqkoHJ2P52mqH/XpFPpS99PZusWG8BrH41f5PxEF50IWFT3G3
+eEUU8zUoiEkdfJkcdxDyVgxMwQf0rTU8Xt3j2FrTFEJyqIcCfAxXBS/kbi+yF0t
FeCUVgOEbScL6xQjAgMBAAGjYzBhMA4GA1UdDwEB/wQEAwIBBjAPBgNVHRMBAf8E
BTADAQH/MB0GA1UdDgQWBBSPH25h1gJKuCLfce8iJLYgA2BV7jAfBgNVHSMEGDAW
gBSPH25h1gJKuCLfce8iJLYgA2BV7jANBgkqhkiG9w0BAQUFAAOCAQEAOQDXpNBR
XH25YEhd1xSGmCSgNISmOpDxGp7GMDBx7LkjlYyEsEWz2Yq8DAaYMnX3EPYvz85B
6wK2KlRps1FYm1tBAdsVJh8L7DZ6UnB1vmUhD48mFJIVOdVa/eZkMhou+UzXGvX7
OFzd4Q1usgWdFs5ZqQqBuXCD3s9Sn9K5abMyrQMQCz+57tJgPF53KN0U5MmjGQCp
ES/A+e20CkfKiMkQPlbQidR40UzKI/6Br8tDHEzk4EnEuHkw5VVt9uXcOAoLNn3K
YEOfTq1K9ybeb0xqQLGg25e0LD2MXYdMSNBUkAsaK0ihOt0QhcjeXy0wfWUb3+Fh
OOR7zLqswKjyvw==
-----END CERTIFICATE-----
